target datalayout = "e-m:e-p270:32:32-p271:32:32-p272:64:64-i64:64-i128:128-f80:128-n8:16:32:64-S128"
target triple = "x86_64-pc-linux-gnu"

%struct.Raig_Man_t_ = type { ptr, i32, i32, i32, i32, i32, i32, i32, ptr, ptr, ptr, ptr, ptr, ptr, ptr, ptr, i32, i32, i32, i32 }

; Function Attrs: nounwind uwtable
define ptr @Raig_ManSimDeref(ptr noundef %0, i32 noundef %1) #0 {
  %3 = alloca ptr, align 8
  %4 = alloca ptr, align 8
  %5 = alloca i32, align 4
  %6 = alloca ptr, align 8
  store ptr %0, ptr %4, align 8
  store i32 %1, ptr %5, align 4
  %7 = load i32, ptr %5, align 4
  %8 = icmp eq i32 %7, 1
  br i1 %8, label %9, label %13

9:                                                ; preds = %2
  %10 = load ptr, ptr %4, align 8
  %11 = getelementptr inbounds %struct.Raig_Man_t_, ptr %10, i32 0, i32 15
  %12 = load ptr, ptr %11, align 8
  store ptr %12, ptr %3, align 8
  br label %58

13:                                               ; preds = %2
  %14 = load ptr, ptr %4, align 8
  %15 = getelementptr inbounds %struct.Raig_Man_t_, ptr %14, i32 0, i32 15
  %16 = load ptr, ptr %15, align 8
  %17 = load ptr, ptr %4, align 8
  %18 = getelementptr inbounds %struct.Raig_Man_t_, ptr %17, i32 0, i32 14
  %19 = load ptr, ptr %18, align 8
  %20 = load i32, ptr %5, align 4
  %21 = sext i32 %20 to i64
  %22 = getelementptr inbounds i32, ptr %19, i64 %21
  %23 = load i32, ptr %22, align 4
  %24 = zext i32 %23 to i64
  %25 = getelementptr inbounds i32, ptr %16, i64 %24
  store ptr %25, ptr %6, align 8
  %26 = load ptr, ptr %6, align 8
  %27 = getelementptr inbounds i32, ptr %26, i64 0
  %28 = load i32, ptr %27, align 4
  %29 = add i32 %28, -1
  store i32 %29, ptr %27, align 4
  %30 = icmp eq i32 %29, 0
  br i1 %30, label %31, label %56

31:                                               ; preds = %13
  %32 = load ptr, ptr %4, align 8
  %33 = getelementptr inbounds %struct.Raig_Man_t_, ptr %32, i32 0, i32 19
  %34 = load i32, ptr %33, align 4
  %35 = load ptr, ptr %6, align 8
  %36 = getelementptr inbounds i32, ptr %35, i64 0
  store i32 %34, ptr %36, align 4
  %37 = load ptr, ptr %4, align 8
  %38 = getelementptr inbounds %struct.Raig_Man_t_, ptr %37, i32 0, i32 14
  %39 = load ptr, ptr %38, align 8
  %40 = load i32, ptr %5, align 4
  %41 = sext i32 %40 to i64
  %42 = getelementptr inbounds i32, ptr %39, i64 %41
  %43 = load i32, ptr %42, align 4
  %44 = load ptr, ptr %4, align 8
  %45 = getelementptr inbounds %struct.Raig_Man_t_, ptr %44, i32 0, i32 19
  store i32 %43, ptr %45, align 4
  %46 = load ptr, ptr %4, align 8
  %47 = getelementptr inbounds %struct.Raig_Man_t_, ptr %46, i32 0, i32 14
  %48 = load ptr, ptr %47, align 8
  %49 = load i32, ptr %5, align 4
  %50 = sext i32 %49 to i64
  %51 = getelementptr inbounds i32, ptr %48, i64 %50
  store i32 0, ptr %51, align 4
  %52 = load ptr, ptr %4, align 8
  %53 = getelementptr inbounds %struct.Raig_Man_t_, ptr %52, i32 0, i32 17
  %54 = load i32, ptr %53, align 4
  %55 = add nsw i32 %54, -1
  store i32 %55, ptr %53, align 4
  br label %56

56:                                               ; preds = %31, %13
  %57 = load ptr, ptr %6, align 8
  store ptr %57, ptr %3, align 8
  br label %58

58:                                               ; preds = %56, %9
  %59 = load ptr, ptr %3, align 8
  ret ptr %59
}