; Function Attrs: mustprogress nofree norecurse nosync nounwind willreturn memory(readwrite, inaccessiblemem: none) uwtable
define ptr @Raig_ManSimDeref(ptr noundef captures(none) %0, i32 noundef %1) local_unnamed_addr #9 {
  %3 = icmp eq i32 %1, 1
  %4 = getelementptr inbounds nuw i8, ptr %0, i64 96
  %5 = load ptr, ptr %4, align 8
  br i1 %3, label %26, label %6

6:                                                ; preds = %2
  %7 = getelementptr inbounds nuw i8, ptr %0, i64 88
  %8 = load ptr, ptr %7, align 8
  %9 = sext i32 %1 to i64
  %10 = getelementptr inbounds i32, ptr %8, i64 %9
  %11 = load i32, ptr %10, align 4
  %12 = zext i32 %11 to i64
  %13 = getelementptr inbounds nuw i32, ptr %5, i64 %12
  %14 = load i32, ptr %13, align 4
  %15 = add i32 %14, -1
  store i32 %15, ptr %13, align 4
  %16 = icmp eq i32 %15, 0
  br i1 %16, label %17, label %26

17:                                               ; preds = %6
  %18 = getelementptr inbounds nuw i8, ptr %0, i64 116
  %19 = load i32, ptr %18, align 4
  store i32 %19, ptr %13, align 4
  %20 = load ptr, ptr %7, align 8
  %21 = getelementptr inbounds i32, ptr %20, i64 %9
  %22 = load i32, ptr %21, align 4
  store i32 %22, ptr %18, align 4
  store i32 0, ptr %21, align 4
  %23 = getelementptr inbounds nuw i8, ptr %0, i64 108
  %24 = load i32, ptr %23, align 4
  %25 = add nsw i32 %24, -1
  store i32 %25, ptr %23, align 4
  br label %26

26:                                               ; preds = %2, %6, %17
  %.0 = phi ptr [ %13, %17 ], [ %13, %6 ], [ %5, %2 ]
  ret ptr %.0
}